; ModuleID = '35/334.c'
source_filename = "35/334.c"
target datalayout = "e-m:e-p270:32:32-p271:32:32-p272:64:64-i64:64-f80:128-n8:16:32:64-S128"
target triple = "x86_64-pc-linux-gnu"

@.str = private unnamed_addr constant [6 x i8] c"%d,%d\00", align 1
@.str.1 = private unnamed_addr constant [3 x i8] c"%d\00", align 1
@.str.2 = private unnamed_addr constant [6 x i8] c"%d+%d\00", align 1
@.str.3 = private unnamed_addr constant [3 x i8] c"No\00", align 1

; Function Attrs: noinline nounwind uwtable
define dso_local i32 @main(i32 %0, i8** %1) #0 {
  %3 = alloca i32, align 4
  %4 = alloca i32, align 4
  %5 = alloca i8**, align 8
  %6 = alloca [8 x [8 x i32]], align 16
  %7 = alloca i32, align 4
  %8 = alloca i32, align 4
  %9 = alloca [8 x i32], align 16
  %10 = alloca i32, align 4
  %11 = alloca i32, align 4
  %12 = alloca i32, align 4
  store i32 0, i32* %3, align 4
  store i32 %0, i32* %4, align 4
  store i8** %1, i8*** %5, align 8
  %13 = bitcast [8 x i32]* %9 to i8*
  call void @llvm.memset.p0i8.i64(i8* align 16 %13, i8 0, i64 32, i1 false)
  %14 = call i32 (i8*, ...) @__isoc99_scanf(i8* getelementptr inbounds ([6 x i8], [6 x i8]* @.str, i64 0, i64 0), i32* %11, i32* %12)
  store i32 0, i32* %7, align 4
  br label %15

15:                                               ; preds = %60, %2
  %16 = load i32, i32* %7, align 4
  %17 = load i32, i32* %11, align 4
  %18 = icmp slt i32 %16, %17
  br i1 %18, label %19, label %63

19:                                               ; preds = %15
  store i32 0, i32* %8, align 4
  br label %20

20:                                               ; preds = %56, %19
  %21 = load i32, i32* %8, align 4
  %22 = load i32, i32* %12, align 4
  %23 = icmp slt i32 %21, %22
  br i1 %23, label %24, label %59

24:                                               ; preds = %20
  %25 = load i32, i32* %7, align 4
  %26 = sext i32 %25 to i64
  %27 = getelementptr inbounds [8 x [8 x i32]], [8 x [8 x i32]]* %6, i64 0, i64 %26
  %28 = load i32, i32* %8, align 4
  %29 = sext i32 %28 to i64
  %30 = getelementptr inbounds [8 x i32], [8 x i32]* %27, i64 0, i64 %29
  %31 = call i32 (i8*, ...) @__isoc99_scanf(i8* getelementptr inbounds ([3 x i8], [3 x i8]* @.str.1, i64 0, i64 0), i32* %30)
  %32 = load i32, i32* %7, align 4
  %33 = sext i32 %32 to i64
  %34 = getelementptr inbounds [8 x [8 x i32]], [8 x [8 x i32]]* %6, i64 0, i64 %33
  %35 = load i32, i32* %8, align 4
  %36 = sext i32 %35 to i64
  %37 = getelementptr inbounds [8 x i32], [8 x i32]* %34, i64 0, i64 %36
  %38 = load i32, i32* %37, align 4
  %39 = load i32, i32* %7, align 4
  %40 = sext i32 %39 to i64
  %41 = getelementptr inbounds [8 x i32], [8 x i32]* %9, i64 0, i64 %40
  %42 = load i32, i32* %41, align 4
  %43 = icmp sgt i32 %38, %42
  br i1 %43, label %44, label %55

44:                                               ; preds = %24
  %45 = load i32, i32* %7, align 4
  %46 = sext i32 %45 to i64
  %47 = getelementptr inbounds [8 x [8 x i32]], [8 x [8 x i32]]* %6, i64 0, i64 %46
  %48 = load i32, i32* %8, align 4
  %49 = sext i32 %48 to i64
  %50 = getelementptr inbounds [8 x i32], [8 x i32]* %47, i64 0, i64 %49
  %51 = load i32, i32* %50, align 4
  %52 = load i32, i32* %7, align 4
  %53 = sext i32 %52 to i64
  %54 = getelementptr inbounds [8 x i32], [8 x i32]* %9, i64 0, i64 %53
  store i32 %51, i32* %54, align 4
  br label %55

55:                                               ; preds = %44, %24
  br label %56

56:                                               ; preds = %55
  %57 = load i32, i32* %8, align 4
  %58 = add nsw i32 %57, 1
  store i32 %58, i32* %8, align 4
  br label %20

59:                                               ; preds = %20
  br label %60

60:                                               ; preds = %59
  %61 = load i32, i32* %7, align 4
  %62 = add nsw i32 %61, 1
  store i32 %62, i32* %7, align 4
  br label %15

63:                                               ; preds = %15
  store i32 0, i32* %7, align 4
  br label %64

64:                                               ; preds = %127, %63
  %65 = load i32, i32* %7, align 4
  %66 = load i32, i32* %11, align 4
  %67 = icmp slt i32 %65, %66
  br i1 %67, label %68, label %130

68:                                               ; preds = %64
  store i32 0, i32* %8, align 4
  br label %69

69:                                               ; preds = %123, %68
  %70 = load i32, i32* %8, align 4
  %71 = load i32, i32* %12, align 4
  %72 = icmp slt i32 %70, %71
  br i1 %72, label %73, label %126

73:                                               ; preds = %69
  %74 = load i32, i32* %7, align 4
  %75 = sext i32 %74 to i64
  %76 = getelementptr inbounds [8 x [8 x i32]], [8 x [8 x i32]]* %6, i64 0, i64 %75
  %77 = load i32, i32* %8, align 4
  %78 = sext i32 %77 to i64
  %79 = getelementptr inbounds [8 x i32], [8 x i32]* %76, i64 0, i64 %78
  %80 = load i32, i32* %79, align 4
  %81 = load i32, i32* %7, align 4
  %82 = sext i32 %81 to i64
  %83 = getelementptr inbounds [8 x i32], [8 x i32]* %9, i64 0, i64 %82
  %84 = load i32, i32* %83, align 4
  %85 = icmp eq i32 %80, %84
  br i1 %85, label %86, label %122

86:                                               ; preds = %73
  store i32 0, i32* %10, align 4
  br label %87

87:                                               ; preds = %106, %86
  %88 = load i32, i32* %10, align 4
  %89 = load i32, i32* %11, align 4
  %90 = icmp slt i32 %88, %89
  br i1 %90, label %91, label %109

91:                                               ; preds = %87
  %92 = load i32, i32* %7, align 4
  %93 = sext i32 %92 to i64
  %94 = getelementptr inbounds [8 x i32], [8 x i32]* %9, i64 0, i64 %93
  %95 = load i32, i32* %94, align 4
  %96 = load i32, i32* %10, align 4
  %97 = sext i32 %96 to i64
  %98 = getelementptr inbounds [8 x [8 x i32]], [8 x [8 x i32]]* %6, i64 0, i64 %97
  %99 = load i32, i32* %8, align 4
  %100 = sext i32 %99 to i64
  %101 = getelementptr inbounds [8 x i32], [8 x i32]* %98, i64 0, i64 %100
  %102 = load i32, i32* %101, align 4
  %103 = icmp sgt i32 %95, %102
  br i1 %103, label %104, label %105

104:                                              ; preds = %91
  br label %109

105:                                              ; preds = %91
  br label %106

106:                                              ; preds = %105
  %107 = load i32, i32* %10, align 4
  %108 = add nsw i32 %107, 1
  store i32 %108, i32* %10, align 4
  br label %87

109:                                              ; preds = %104, %87
  %110 = load i32, i32* %10, align 4
  %111 = load i32, i32* %11, align 4
  %112 = icmp eq i32 %110, %111
  br i1 %112, label %113, label %117

113:                                              ; preds = %109
  %114 = load i32, i32* %7, align 4
  %115 = load i32, i32* %8, align 4
  %116 = call i32 (i8*, ...) @printf(i8* getelementptr inbounds ([6 x i8], [6 x i8]* @.str.2, i64 0, i64 0), i32 %114, i32 %115)
  br label %121

117:                                              ; preds = %109
  %118 = load i32, i32* %7, align 4
  %119 = sext i32 %118 to i64
  %120 = getelementptr inbounds [8 x i32], [8 x i32]* %9, i64 0, i64 %119
  store i32 0, i32* %120, align 4
  br label %126

121:                                              ; preds = %113
  br label %122

122:                                              ; preds = %121, %73
  br label %123

123:                                              ; preds = %122
  %124 = load i32, i32* %8, align 4
  %125 = add nsw i32 %124, 1
  store i32 %125, i32* %8, align 4
  br label %69

126:                                              ; preds = %117, %69
  br label %127

127:                                              ; preds = %126
  %128 = load i32, i32* %7, align 4
  %129 = add nsw i32 %128, 1
  store i32 %129, i32* %7, align 4
  br label %64

130:                                              ; preds = %64
  %131 = getelementptr inbounds [8 x i32], [8 x i32]* %9, i64 0, i64 0
  %132 = load i32, i32* %131, align 16
  %133 = getelementptr inbounds [8 x i32], [8 x i32]* %9, i64 0, i64 1
  %134 = load i32, i32* %133, align 4
  %135 = add nsw i32 %132, %134
  %136 = getelementptr inbounds [8 x i32], [8 x i32]* %9, i64 0, i64 2
  %137 = load i32, i32* %136, align 8
  %138 = add nsw i32 %135, %137
  %139 = getelementptr inbounds [8 x i32], [8 x i32]* %9, i64 0, i64 3
  %140 = load i32, i32* %139, align 4
  %141 = add nsw i32 %138, %140
  %142 = getelementptr inbounds [8 x i32], [8 x i32]* %9, i64 0, i64 4
  %143 = load i32, i32* %142, align 16
  %144 = add nsw i32 %141, %143
  %145 = getelementptr inbounds [8 x i32], [8 x i32]* %9, i64 0, i64 5
  %146 = load i32, i32* %145, align 4
  %147 = add nsw i32 %144, %146
  %148 = getelementptr inbounds [8 x i32], [8 x i32]* %9, i64 0, i64 6
  %149 = load i32, i32* %148, align 8
  %150 = add nsw i32 %147, %149
  %151 = getelementptr inbounds [8 x i32], [8 x i32]* %9, i64 0, i64 7
  %152 = load i32, i32* %151, align 4
  %153 = add nsw i32 %150, %152
  %154 = icmp eq i32 %153, 0
  br i1 %154, label %155, label %157

155:                                              ; preds = %130
  %156 = call i32 (i8*, ...) @printf(i8* getelementptr inbounds ([3 x i8], [3 x i8]* @.str.3, i64 0, i64 0))
  br label %157

157:                                              ; preds = %155, %130
  ret i32 0
}

; Function Attrs: argmemonly nounwind willreturn
declare void @llvm.memset.p0i8.i64(i8* nocapture writeonly, i8, i64, i1 immarg) #1

declare dso_local i32 @__isoc99_scanf(i8*, ...) #2

declare dso_local i32 @printf(i8*, ...) #2


!llvm.module.flags = !{!0}
!llvm.ident = !{!1}

!0 = !{i32 1, !"wchar_size", i32 4}
!1 = !{!"clang version 10.0.0-4ubuntu1 "}
